target datalayout = "e-m:e-p270:32:32-p271:32:32-p272:64:64-i64:64-i128:128-f80:128-n8:16:32:64-S128"
target triple = "x86_64-pc-linux-gnu"

; Function Attrs: nounwind uwtable
define i32 @ossl_encode_der_length(ptr noundef %0, i64 noundef %1) #0 {
  %3 = alloca i32, align 4
  %4 = alloca ptr, align 8
  %5 = alloca i64, align 8
  store ptr %0, ptr %4, align 8, !tbaa !3
  store i64 %1, ptr %5, align 8, !tbaa !8
  %6 = load i64, ptr %5, align 8, !tbaa !8
  %7 = icmp ugt i64 %6, 65535
  br i1 %7, label %8, label %9

8:                                                ; preds = %2
  store i32 0, ptr %3, align 4
  br label %39

9:                                                ; preds = %2
  %10 = load i64, ptr %5, align 8, !tbaa !8
  %11 = icmp ugt i64 %10, 255
  br i1 %11, label %12, label %23

12:                                               ; preds = %9
  %13 = load ptr, ptr %4, align 8, !tbaa !3
  %14 = call i32 @WPACKET_put_bytes__(ptr noundef %13, i64 noundef 130, i64 noundef 1)
  %15 = icmp ne i32 %14, 0
  br i1 %15, label %16, label %21

16:                                               ; preds = %12
  %17 = load ptr, ptr %4, align 8, !tbaa !3
  %18 = load i64, ptr %5, align 8, !tbaa !8
  %19 = call i32 @WPACKET_put_bytes__(ptr noundef %17, i64 noundef %18, i64 noundef 2)
  %20 = icmp ne i32 %19, 0
  br i1 %20, label %22, label %21

21:                                               ; preds = %16, %12
  store i32 0, ptr %3, align 4
  br label %39

22:                                               ; preds = %16
  br label %38

23:                                               ; preds = %9
  %24 = load i64, ptr %5, align 8, !tbaa !8
  %25 = icmp ugt i64 %24, 127
  br i1 %25, label %26, label %31

26:                                               ; preds = %23
  %27 = load ptr, ptr %4, align 8, !tbaa !3
  %28 = call i32 @WPACKET_put_bytes__(ptr noundef %27, i64 noundef 129, i64 noundef 1)
  %29 = icmp ne i32 %28, 0
  br i1 %29, label %31, label %30

30:                                               ; preds = %26
  store i32 0, ptr %3, align 4
  br label %39

31:                                               ; preds = %26, %23
  %32 = load ptr, ptr %4, align 8, !tbaa !3
  %33 = load i64, ptr %5, align 8, !tbaa !8
  %34 = call i32 @WPACKET_put_bytes__(ptr noundef %32, i64 noundef %33, i64 noundef 1)
  %35 = icmp ne i32 %34, 0
  br i1 %35, label %37, label %36

36:                                               ; preds = %31
  store i32 0, ptr %3, align 4
  br label %39

37:                                               ; preds = %31
  br label %38

38:                                               ; preds = %37, %22
  store i32 1, ptr %3, align 4
  br label %39

39:                                               ; preds = %38, %36, %30, %21, %8
  %40 = load i32, ptr %3, align 4
  ret i32 %40
}