; Function Attrs: nounwind uwtable
define range(i32 0, 2) i32 @ossl_encode_der_length(ptr noundef %0, i64 noundef %1) local_unnamed_addr #0 {
  %3 = icmp ugt i64 %1, 65535
  br i1 %3, label %17, label %4

4:                                                ; preds = %2
  %5 = icmp samesign ugt i64 %1, 255
  br i1 %5, label %6, label %10

6:                                                ; preds = %4
  %7 = tail call i32 @WPACKET_put_bytes__(ptr noundef %0, i64 noundef 130, i64 noundef 1) #4
  %.not11 = icmp eq i32 %7, 0
  br i1 %.not11, label %17, label %8

8:                                                ; preds = %6
  %9 = tail call i32 @WPACKET_put_bytes__(ptr noundef %0, i64 noundef %1, i64 noundef 2) #4
  %.not12 = icmp eq i32 %9, 0
  br i1 %.not12, label %17, label %16

10:                                               ; preds = %4
  %11 = icmp samesign ugt i64 %1, 127
  br i1 %11, label %12, label %14

12:                                               ; preds = %10
  %13 = tail call i32 @WPACKET_put_bytes__(ptr noundef %0, i64 noundef 129, i64 noundef 1) #4
  %.not = icmp eq i32 %13, 0
  br i1 %.not, label %17, label %14

14:                                               ; preds = %12, %10
  %15 = tail call i32 @WPACKET_put_bytes__(ptr noundef %0, i64 noundef %1, i64 noundef 1) #4
  %.not10 = icmp eq i32 %15, 0
  br i1 %.not10, label %17, label %16

16:                                               ; preds = %14, %8
  br label %17

17:                                               ; preds = %14, %12, %6, %8, %2, %16
  %.0 = phi i32 [ 1, %16 ], [ 0, %2 ], [ 0, %8 ], [ 0, %6 ], [ 0, %12 ], [ 0, %14 ]
  ret i32 %.0
}